target datalayout = "e-m:e-p270:32:32-p271:32:32-p272:64:64-i64:64-i128:128-f80:128-n8:16:32:64-S128"
target triple = "x86_64-pc-linux-gnu"

@.str.13 = private unnamed_addr constant [4 x i8] c"???\00", align 1
@LockTagTypeNames = external constant [0 x ptr], align 8

; Function Attrs: nounwind uwtable
define dso_local ptr @GetLockNameFromTagType(i16 noundef zeroext %0) #0 {
  %2 = alloca ptr, align 8
  %3 = alloca i16, align 2
  store i16 %0, ptr %3, align 2
  %4 = load i16, ptr %3, align 2
  %5 = zext i16 %4 to i32
  %6 = icmp sgt i32 %5, 11
  br i1 %6, label %7, label %8

7:                                                ; preds = %1
  store ptr @.str.13, ptr %2, align 8
  br label %13

8:                                                ; preds = %1
  %9 = load i16, ptr %3, align 2
  %10 = zext i16 %9 to i64
  %11 = getelementptr inbounds nuw [0 x ptr], ptr @LockTagTypeNames, i64 0, i64 %10
  %12 = load ptr, ptr %11, align 8
  store ptr %12, ptr %2, align 8
  br label %13

13:                                               ; preds = %8, %7
  %14 = load ptr, ptr %2, align 8
  ret ptr %14
}