; Function Attrs: mustprogress nofree norecurse nosync nounwind willreturn memory(none) uwtable
define dso_local ptr @GetLockNameFromTagType(i16 noundef zeroext %0) local_unnamed_addr #6 {
  %2 = icmp ugt i16 %0, 11
  br i1 %2, label %7, label %3

3:                                                ; preds = %1
  %4 = zext nneg i16 %0 to i64
  %5 = getelementptr inbounds nuw [0 x ptr], ptr @LockTagTypeNames, i64 0, i64 %4
  %6 = load ptr, ptr %5, align 8
  br label %7

7:                                                ; preds = %1, %3
  %.0 = phi ptr [ %6, %3 ], [ @.str.13, %1 ]
  ret ptr %.0
}